; Function Attrs: mustprogress uwtable
define void @_ZNK6casadi10MXFunction4findERSt3mapIPNS_16FunctionInternalENS_8FunctionESt4lessIS3_ESaISt4pairIKS3_S4_EEEx(ptr noundef nonnull align 8 dereferenceable(1450) %0, ptr noundef nonnull align 1 %1, i64 noundef %2) unnamed_addr #3 align 2 personality ptr @__gxx_personality_v0 {
  %4 = alloca %"class.casadi::Function", align 8
  %5 = getelementptr inbounds i8, ptr %0, i64 1352
  %6 = load ptr, ptr %5, align 8
  %7 = getelementptr inbounds i8, ptr %0, i64 1360
  %8 = load ptr, ptr %7, align 8
  %.not11 = icmp eq ptr %6, %8
  br i1 %.not11, label %._crit_edge, label %.lr.ph

.lr.ph:                                           ; preds = %3, %16
  %.sroa.08.012 = phi ptr [ %17, %16 ], [ %6, %3 ]
  %9 = load i64, ptr %.sroa.08.012, align 8
  %10 = icmp eq i64 %9, 48
  br i1 %10, label %11, label %16

11:                                               ; preds = %.lr.ph
  %12 = getelementptr inbounds i8, ptr %.sroa.08.012, i64 8
  call void @_ZNK6casadi2MX14which_functionEv(ptr dead_on_unwind nonnull writable sret(%"class.casadi::Function") align 8 %4, ptr noundef nonnull align 8 dereferenceable(8) %12)
  invoke void @_ZNK6casadi16FunctionInternal12add_embeddedERSt3mapIPS0_NS_8FunctionESt4lessIS2_ESaISt4pairIKS2_S3_EEERKS3_x(ptr noundef nonnull align 8 dereferenceable(1304) %0, ptr noundef nonnull align 1 %1, ptr noundef nonnull align 8 dereferenceable(8) %4, i64 noundef %2)
          to label %13 unwind label %14

13:                                               ; preds = %11
  call void @_ZN6casadi8FunctionD1Ev(ptr noundef nonnull align 8 dereferenceable(8) %4) #23
  br label %16

14:                                               ; preds = %11
  %15 = landingpad { ptr, i32 }
          cleanup
  call void @_ZN6casadi8FunctionD1Ev(ptr noundef nonnull align 8 dereferenceable(8) %4) #23
  resume { ptr, i32 } %15

16:                                               ; preds = %.lr.ph, %13
  %17 = getelementptr inbounds i8, ptr %.sroa.08.012, i64 64
  %.not = icmp eq ptr %17, %8
  br i1 %.not, label %._crit_edge, label %.lr.ph

._crit_edge:                                      ; preds = %16, %3
  ret void
}